target datalayout = "e-m:e-p270:32:32-p271:32:32-p272:64:64-i64:64-i128:128-f80:128-n8:16:32:64-S128"
target triple = "x86_64-pc-linux-gnu"

@bio_err = external global ptr, align 8
@.str.157 = private unnamed_addr constant [26 x i8] c"cannot convert %s to OID\0A\00", align 1

; Function Attrs: nounwind uwtable
define internal ptr @txt2obj(ptr noundef %0) #0 {
  %2 = alloca ptr, align 8
  %3 = alloca ptr, align 8
  store ptr %0, ptr %2, align 8, !tbaa !13
  call void @llvm.lifetime.start.p0(i64 8, ptr %3) #4
  store ptr null, ptr %3, align 8, !tbaa !38
  %4 = load ptr, ptr %2, align 8, !tbaa !13
  %5 = call ptr @OBJ_txt2obj(ptr noundef %4, i32 noundef 0)
  store ptr %5, ptr %3, align 8, !tbaa !38
  %6 = icmp eq ptr %5, null
  br i1 %6, label %7, label %11

7:                                                ; preds = %1
  %8 = load ptr, ptr @bio_err, align 8, !tbaa !19
  %9 = load ptr, ptr %2, align 8, !tbaa !13
  %10 = call i32 (ptr, ptr, ...) @BIO_printf(ptr noundef %8, ptr noundef @.str.157, ptr noundef %9)
  br label %11

11:                                               ; preds = %7, %1
  %12 = load ptr, ptr %3, align 8, !tbaa !38
  call void @llvm.lifetime.end.p0(i64 8, ptr %3) #4
  ret ptr %12
}