; Function Attrs: nounwind uwtable
define internal fastcc ptr @txt2obj(ptr noundef nonnull %0) unnamed_addr #0 {
  %2 = tail call ptr @OBJ_txt2obj(ptr noundef nonnull %0, i32 noundef 0) #7
  %3 = icmp eq ptr %2, null
  br i1 %3, label %4, label %7

4:                                                ; preds = %1
  %5 = load ptr, ptr @bio_err, align 8, !tbaa !11
  %6 = tail call i32 (ptr, ptr, ...) @BIO_printf(ptr noundef %5, ptr noundef nonnull @.str.157, ptr noundef nonnull %0) #7
  br label %7

7:                                                ; preds = %4, %1
  ret ptr %2
}